; Function Attrs: mustprogress nofree norecurse nosync nounwind willreturn memory(argmem: write) uwtable
define internal noundef i32 @zueci_u_binary(i32 noundef %0, ptr nocapture noundef writeonly %1) unnamed_addr #2 {
  %3 = icmp ult i32 %0, 256
  br i1 %3, label %4, label %6

4:                                                ; preds = %2
  %5 = trunc nuw i32 %0 to i8
  store i8 %5, ptr %1, align 1
  br label %6

6:                                                ; preds = %2, %4
  %.0 = phi i32 [ 1, %4 ], [ 0, %2 ]
  ret i32 %.0
}